; Function Attrs: mustprogress nofree norecurse nosync nounwind willreturn memory(none) uwtable
define i64 @_ZNK3spv10spirvbin_t10constRangeENS_2OpE(ptr nocapture noundef nonnull readnone align 8 dereferenceable(473) %0, i32 noundef %1) local_unnamed_addr #4 align 2 {
  switch i32 %1, label %4 [
    i32 28, label %5
    i32 29, label %5
    i32 44, label %3
  ]

3:                                                ; preds = %2
  br label %5

4:                                                ; preds = %2
  br label %5

5:                                                ; preds = %2, %2, %4, %3
  %.sroa.0.0 = phi i64 [ 0, %4 ], [ 3, %3 ], [ 3, %2 ], [ 3, %2 ]
  %.sroa.4.0 = phi i64 [ 0, %4 ], [ 4611686018427387904, %3 ], [ 17179869184, %2 ], [ 17179869184, %2 ]
  %.sroa.0.0.insert.insert = or disjoint i64 %.sroa.4.0, %.sroa.0.0
  ret i64 %.sroa.0.0.insert.insert
}